target datalayout = "e-m:e-p270:32:32-p271:32:32-p272:64:64-i64:64-i128:128-f80:128-n8:16:32:64-S128"
target triple = "x86_64-pc-linux-gnu"

@.str = private unnamed_addr constant [34 x i8] c"../openssl/crypto/rsa/rsa_pmeth.c\00", align 1
@__func__.check_padding_md = private unnamed_addr constant [17 x i8] c"check_padding_md\00", align 1

; Function Attrs: nounwind uwtable
define internal i32 @check_padding_md(ptr noundef %0, i32 noundef %1) #0 {
  %3 = alloca i32, align 4
  %4 = alloca ptr, align 8
  %5 = alloca i32, align 4
  %6 = alloca i32, align 4
  %7 = alloca i32, align 4
  store ptr %0, ptr %4, align 8, !tbaa !55
  store i32 %1, ptr %5, align 4, !tbaa !47
  call void @llvm.lifetime.start.p0(i64 4, ptr %6) #8
  %8 = load ptr, ptr %4, align 8, !tbaa !55
  %9 = icmp ne ptr %8, null
  br i1 %9, label %11, label %10

10:                                               ; preds = %2
  store i32 1, ptr %3, align 4
  store i32 1, ptr %7, align 4
  br label %31

11:                                               ; preds = %2
  %12 = load ptr, ptr %4, align 8, !tbaa !55
  %13 = call i32 @EVP_MD_get_type(ptr noundef %12)
  store i32 %13, ptr %6, align 4, !tbaa !47
  %14 = load i32, ptr %5, align 4, !tbaa !47
  %15 = icmp eq i32 %14, 3
  br i1 %15, label %16, label %17

16:                                               ; preds = %11
  call void @ERR_new()
  call void @ERR_set_debug(ptr noundef @.str, i32 noundef 408, ptr noundef @__func__.check_padding_md)
  call void (i32, i32, ptr, ...) @ERR_set_error(i32 noundef 4, i32 noundef 141, ptr noundef null)
  store i32 0, ptr %3, align 4
  store i32 1, ptr %7, align 4
  br label %31

17:                                               ; preds = %11
  %18 = load i32, ptr %5, align 4, !tbaa !47
  %19 = icmp eq i32 %18, 5
  br i1 %19, label %20, label %26

20:                                               ; preds = %17
  %21 = load i32, ptr %6, align 4, !tbaa !47
  %22 = call i32 @RSA_X931_hash_id(i32 noundef %21)
  %23 = icmp eq i32 %22, -1
  br i1 %23, label %24, label %25

24:                                               ; preds = %20
  call void @ERR_new()
  call void @ERR_set_debug(ptr noundef @.str, i32 noundef 414, ptr noundef @__func__.check_padding_md)
  call void (i32, i32, ptr, ...) @ERR_set_error(i32 noundef 4, i32 noundef 142, ptr noundef null)
  store i32 0, ptr %3, align 4
  store i32 1, ptr %7, align 4
  br label %31

25:                                               ; preds = %20
  br label %30

26:                                               ; preds = %17
  %27 = load i32, ptr %6, align 4, !tbaa !47
  switch i32 %27, label %29 [
    i32 64, label %28
    i32 675, label %28
    i32 672, label %28
    i32 673, label %28
    i32 674, label %28
    i32 1094, label %28
    i32 1095, label %28
    i32 4, label %28
    i32 114, label %28
    i32 3, label %28
    i32 257, label %28
    i32 95, label %28
    i32 117, label %28
    i32 1096, label %28
    i32 1097, label %28
    i32 1098, label %28
    i32 1099, label %28
  ]

28:                                               ; preds = %26, %26, %26, %26, %26, %26, %26, %26, %26, %26, %26, %26, %26, %26, %26, %26, %26
  store i32 1, ptr %3, align 4
  store i32 1, ptr %7, align 4
  br label %31

29:                                               ; preds = %26
  call void @ERR_new()
  call void @ERR_set_debug(ptr noundef @.str, i32 noundef 440, ptr noundef @__func__.check_padding_md)
  call void (i32, i32, ptr, ...) @ERR_set_error(i32 noundef 4, i32 noundef 157, ptr noundef null)
  store i32 0, ptr %3, align 4
  store i32 1, ptr %7, align 4
  br label %31

30:                                               ; preds = %25
  store i32 1, ptr %3, align 4
  store i32 1, ptr %7, align 4
  br label %31

31:                                               ; preds = %30, %29, %28, %24, %16, %10
  call void @llvm.lifetime.end.p0(i64 4, ptr %6) #8
  %32 = load i32, ptr %3, align 4
  ret i32 %32
}