; Function Attrs: nounwind uwtable
define internal fastcc range(i32 0, 2) i32 @check_padding_md(ptr noundef %0, i32 noundef %1) unnamed_addr #1 {
  %.not = icmp eq ptr %0, null
  br i1 %.not, label %9, label %3

3:                                                ; preds = %2
  %4 = tail call i32 @EVP_MD_get_type(ptr noundef nonnull %0) #9
  switch i32 %1, label %8 [
    i32 3, label %.sink.split
    i32 5, label %5
  ]

5:                                                ; preds = %3
  %6 = tail call i32 @RSA_X931_hash_id(i32 noundef %4) #9
  %7 = icmp eq i32 %6, -1
  br i1 %7, label %.sink.split, label %9

8:                                                ; preds = %3
  switch i32 %4, label %.sink.split [
    i32 64, label %9
    i32 675, label %9
    i32 672, label %9
    i32 673, label %9
    i32 674, label %9
    i32 1094, label %9
    i32 1095, label %9
    i32 4, label %9
    i32 114, label %9
    i32 3, label %9
    i32 257, label %9
    i32 95, label %9
    i32 117, label %9
    i32 1096, label %9
    i32 1097, label %9
    i32 1098, label %9
    i32 1099, label %9
  ]

.sink.split:                                      ; preds = %8, %5, %3
  %.sink8 = phi i32 [ 408, %3 ], [ 414, %5 ], [ 440, %8 ]
  %.sink = phi i32 [ 141, %3 ], [ 142, %5 ], [ 157, %8 ]
  tail call void @ERR_new() #9
  tail call void @ERR_set_debug(ptr noundef nonnull @.str, i32 noundef %.sink8, ptr noundef nonnull @__func__.check_padding_md) #9
  tail call void (i32, i32, ptr, ...) @ERR_set_error(i32 noundef 4, i32 noundef %.sink, ptr noundef null) #9
  br label %9

9:                                                ; preds = %.sink.split, %5, %8, %8, %8, %8, %8, %8, %8, %8, %8, %8, %8, %8, %8, %8, %8, %8, %8, %2
  %.0 = phi i32 [ 1, %2 ], [ 1, %8 ], [ 1, %8 ], [ 1, %8 ], [ 1, %8 ], [ 1, %8 ], [ 1, %8 ], [ 1, %8 ], [ 1, %8 ], [ 1, %8 ], [ 1, %8 ], [ 1, %8 ], [ 1, %8 ], [ 1, %8 ], [ 1, %8 ], [ 1, %8 ], [ 1, %8 ], [ 1, %8 ], [ 1, %5 ], [ 0, %.sink.split ]
  ret i32 %.0
}